; Function Attrs: nounwind uwtable
define internal i32 @comparetup_cluster(ptr noundef readonly captures(none) %0, ptr noundef readonly captures(none) %1, ptr noundef readonly captures(none) %2) #0 {
  %4 = getelementptr inbounds nuw i8, ptr %2, i64 72
  %5 = load i8, ptr %4, align 8, !range !4, !noundef !5
  %6 = trunc nuw i8 %5 to i1
  br i1 %6, label %7, label %ApplySortComparator.exit.thread16

7:                                                ; preds = %3
  %8 = getelementptr inbounds nuw i8, ptr %2, i64 80
  %9 = load ptr, ptr %8, align 8
  %10 = getelementptr inbounds nuw i8, ptr %0, i64 8
  %11 = load i64, ptr %10, align 8
  %12 = getelementptr inbounds nuw i8, ptr %0, i64 16
  %13 = load i8, ptr %12, align 8, !range !4, !noundef !5
  %14 = trunc nuw i8 %13 to i1
  %15 = getelementptr inbounds nuw i8, ptr %1, i64 8
  %16 = load i64, ptr %15, align 8
  %17 = getelementptr inbounds nuw i8, ptr %1, i64 16
  %18 = load i8, ptr %17, align 8, !range !4, !noundef !5
  %19 = trunc nuw i8 %18 to i1
  br i1 %14, label %20, label %25

20:                                               ; preds = %7
  br i1 %19, label %ApplySortComparator.exit.thread16, label %21

21:                                               ; preds = %20
  %22 = getelementptr inbounds nuw i8, ptr %9, i64 13
  %23 = load i8, ptr %22, align 1, !range !4, !noundef !5
  %24 = trunc nuw i8 %23 to i1
  %..i = select i1 %24, i32 -1, i32 1
  br label %ApplySortComparator.exit.thread

25:                                               ; preds = %7
  br i1 %19, label %26, label %30

26:                                               ; preds = %25
  %27 = getelementptr inbounds nuw i8, ptr %9, i64 13
  %28 = load i8, ptr %27, align 1, !range !4, !noundef !5
  %29 = trunc nuw i8 %28 to i1
  %.12.i = select i1 %29, i32 1, i32 -1
  br label %ApplySortComparator.exit.thread

30:                                               ; preds = %25
  %31 = getelementptr inbounds nuw i8, ptr %9, i64 24
  %32 = load ptr, ptr %31, align 8
  %33 = tail call i32 %32(i64 noundef %11, i64 noundef %16, ptr noundef %9) #12
  %34 = getelementptr inbounds nuw i8, ptr %9, i64 12
  %35 = load i8, ptr %34, align 4, !range !4, !noundef !5
  %36 = trunc nuw i8 %35 to i1
  br i1 %36, label %37, label %ApplySortComparator.exit

37:                                               ; preds = %30
  %38 = icmp slt i32 %33, 0
  %39 = sub nsw i32 0, %33
  br i1 %38, label %ApplySortComparator.exit.thread, label %ApplySortComparator.exit

ApplySortComparator.exit:                         ; preds = %37, %30
  %.0.i = phi i32 [ %39, %37 ], [ %33, %30 ]
  %.not = icmp eq i32 %.0.i, 0
  br i1 %.not, label %ApplySortComparator.exit.thread16, label %ApplySortComparator.exit.thread

ApplySortComparator.exit.thread16:                ; preds = %20, %ApplySortComparator.exit, %3
  %40 = tail call i32 @comparetup_cluster_tiebreak(ptr noundef %0, ptr noundef %1, ptr noundef nonnull %2)
  br label %ApplySortComparator.exit.thread

ApplySortComparator.exit.thread:                  ; preds = %37, %26, %21, %ApplySortComparator.exit, %ApplySortComparator.exit.thread16
  %.0 = phi i32 [ %40, %ApplySortComparator.exit.thread16 ], [ %.0.i, %ApplySortComparator.exit ], [ %.12.i, %26 ], [ %..i, %21 ], [ 1, %37 ]
  ret i32 %.0
}